target datalayout = "e-m:e-p270:32:32-p271:32:32-p272:64:64-i64:64-i128:128-f80:128-n8:16:32:64-S128"
target triple = "x86_64-pc-linux-gnu"

%struct.Qureg = type { i32, i32, i32, i64, i64, i32, i32, %struct.ComplexArray, %struct.ComplexArray, %struct.ComplexArray, ptr, ptr, ptr, ptr, ptr, ptr }
%struct.ComplexArray = type { ptr, ptr }
%struct.ComplexMatrix4 = type { [4 x [4 x double]], [4 x [4 x double]] }

@__func__.multiControlledTwoQubitUnitary = private unnamed_addr constant [31 x i8] c"multiControlledTwoQubitUnitary\00", align 1
@.str.4 = private unnamed_addr constant [67 x i8] c"Here, an undisclosed multi-controlled 2-qubit unitary was applied.\00", align 1

; Function Attrs: nounwind uwtable
define void @multiControlledTwoQubitUnitary(ptr noundef byval(%struct.Qureg) align 8 %0, ptr noundef %1, i32 noundef %2, i32 noundef %3, i32 noundef %4, ptr noundef byval(%struct.ComplexMatrix4) align 8 %5) #0 {
  %7 = alloca ptr, align 8
  %8 = alloca i32, align 4
  %9 = alloca i32, align 4
  %10 = alloca i32, align 4
  %11 = alloca [2 x i32], align 4
  %12 = alloca i64, align 8
  %13 = alloca i32, align 4
  %14 = alloca %struct.ComplexMatrix4, align 8
  store ptr %1, ptr %7, align 8, !tbaa !27
  store i32 %2, ptr %8, align 4, !tbaa !4
  store i32 %3, ptr %9, align 4, !tbaa !4
  store i32 %4, ptr %10, align 4, !tbaa !4
  %15 = load ptr, ptr %7, align 8, !tbaa !27
  %16 = load i32, ptr %8, align 4, !tbaa !4
  %17 = load i32, ptr %9, align 4, !tbaa !4
  store i32 %17, ptr %11, align 4, !tbaa !4
  %18 = getelementptr inbounds i32, ptr %11, i64 1
  %19 = load i32, ptr %10, align 4, !tbaa !4
  store i32 %19, ptr %18, align 4, !tbaa !4
  %20 = getelementptr inbounds [2 x i32], ptr %11, i64 0, i64 0
  call void @validateMultiControlsMultiTargets(ptr noundef byval(%struct.Qureg) align 8 %0, ptr noundef %15, i32 noundef %16, ptr noundef %20, i32 noundef 2, ptr noundef @__func__.multiControlledTwoQubitUnitary)
  call void @validateTwoQubitUnitaryMatrix(ptr noundef byval(%struct.Qureg) align 8 %0, ptr noundef byval(%struct.ComplexMatrix4) align 8 %5, ptr noundef @__func__.multiControlledTwoQubitUnitary)
  call void @llvm.lifetime.start.p0(i64 8, ptr %12) #7
  %21 = load ptr, ptr %7, align 8, !tbaa !27
  %22 = load i32, ptr %8, align 4, !tbaa !4
  %23 = call i64 @getQubitBitMask(ptr noundef %21, i32 noundef %22)
  store i64 %23, ptr %12, align 8, !tbaa !22
  %24 = load i64, ptr %12, align 8, !tbaa !22
  %25 = load i32, ptr %9, align 4, !tbaa !4
  %26 = load i32, ptr %10, align 4, !tbaa !4
  call void @statevec_multiControlledTwoQubitUnitary(ptr noundef byval(%struct.Qureg) align 8 %0, i64 noundef %24, i32 noundef %25, i32 noundef %26, ptr noundef byval(%struct.ComplexMatrix4) align 8 %5)
  %27 = getelementptr inbounds nuw %struct.Qureg, ptr %0, i32 0, i32 0
  %28 = load i32, ptr %27, align 8, !tbaa !13
  %29 = icmp ne i32 %28, 0
  br i1 %29, label %30, label %43

30:                                               ; preds = %6
  call void @llvm.lifetime.start.p0(i64 4, ptr %13) #7
  %31 = getelementptr inbounds nuw %struct.Qureg, ptr %0, i32 0, i32 1
  %32 = load i32, ptr %31, align 4, !tbaa !18
  store i32 %32, ptr %13, align 4, !tbaa !4
  %33 = load i64, ptr %12, align 8, !tbaa !22
  %34 = load i32, ptr %13, align 4, !tbaa !4
  %35 = zext i32 %34 to i64
  %36 = shl i64 %33, %35
  %37 = load i32, ptr %9, align 4, !tbaa !4
  %38 = load i32, ptr %13, align 4, !tbaa !4
  %39 = add nsw i32 %37, %38
  %40 = load i32, ptr %10, align 4, !tbaa !4
  %41 = load i32, ptr %13, align 4, !tbaa !4
  %42 = add nsw i32 %40, %41
  call void @getConjugateMatrix4(ptr dead_on_unwind writable sret(%struct.ComplexMatrix4) align 8 %14, ptr noundef byval(%struct.ComplexMatrix4) align 8 %5)
  call void @statevec_multiControlledTwoQubitUnitary(ptr noundef byval(%struct.Qureg) align 8 %0, i64 noundef %36, i32 noundef %39, i32 noundef %42, ptr noundef byval(%struct.ComplexMatrix4) align 8 %14)
  call void @llvm.lifetime.end.p0(i64 4, ptr %13) #7
  br label %43

43:                                               ; preds = %30, %6
  call void (ptr, ptr, ...) @qasm_recordComment(ptr noundef byval(%struct.Qureg) align 8 %0, ptr noundef @.str.4)
  call void @llvm.lifetime.end.p0(i64 8, ptr %12) #7
  ret void
}