; Function Attrs: nounwind uwtable
define void @multiControlledTwoQubitUnitary(ptr noundef readonly byval(%struct.Qureg) align 8 captures(none) %0, ptr noundef %1, i32 noundef %2, i32 noundef %3, i32 noundef %4, ptr noundef readonly byval(%struct.ComplexMatrix4) align 8 captures(none) %5) local_unnamed_addr #0 {
  %7 = alloca [2 x i32], align 4
  %8 = alloca %struct.ComplexMatrix4, align 8
  store i32 %3, ptr %7, align 4, !tbaa !20
  %9 = getelementptr inbounds nuw i8, ptr %7, i64 4
  store i32 %4, ptr %9, align 4, !tbaa !20
  call void @validateMultiControlsMultiTargets(ptr noundef nonnull byval(%struct.Qureg) align 8 %0, ptr noundef %1, i32 noundef %2, ptr noundef nonnull %7, i32 noundef 2, ptr noundef nonnull @__func__.multiControlledTwoQubitUnitary) #17
  call void @validateTwoQubitUnitaryMatrix(ptr noundef nonnull byval(%struct.Qureg) align 8 %0, ptr noundef nonnull byval(%struct.ComplexMatrix4) align 8 %5, ptr noundef nonnull @__func__.multiControlledTwoQubitUnitary) #17
  %10 = call i64 @getQubitBitMask(ptr noundef %1, i32 noundef %2) #17
  call void @statevec_multiControlledTwoQubitUnitary(ptr noundef nonnull byval(%struct.Qureg) align 8 %0, i64 noundef %10, i32 noundef %3, i32 noundef %4, ptr noundef nonnull byval(%struct.ComplexMatrix4) align 8 %5) #17
  %11 = load i32, ptr %0, align 8, !tbaa !12
  %.not = icmp eq i32 %11, 0
  br i1 %.not, label %19, label %12

12:                                               ; preds = %6
  %13 = getelementptr inbounds nuw i8, ptr %0, i64 4
  %14 = load i32, ptr %13, align 4, !tbaa !17
  %15 = zext nneg i32 %14 to i64
  %16 = shl i64 %10, %15
  %17 = add nsw i32 %14, %3
  %18 = add nsw i32 %14, %4
  call void @getConjugateMatrix4(ptr dead_on_unwind nonnull writable sret(%struct.ComplexMatrix4) align 8 %8, ptr noundef nonnull byval(%struct.ComplexMatrix4) align 8 %5) #17
  call void @statevec_multiControlledTwoQubitUnitary(ptr noundef nonnull byval(%struct.Qureg) align 8 %0, i64 noundef %16, i32 noundef %17, i32 noundef %18, ptr noundef nonnull byval(%struct.ComplexMatrix4) align 8 %8) #17
  br label %19

19:                                               ; preds = %12, %6
  call void (ptr, ptr, ...) @qasm_recordComment(ptr noundef nonnull byval(%struct.Qureg) align 8 %0, ptr noundef nonnull @.str.4) #17
  ret void
}